; Function Attrs: mustprogress uwtable
define hidden void @_ZN8facebook6hermes7tracing14TracingRuntime15getValueAtIndexERKNS_3jsi5ArrayEm(ptr noalias sret(%"class.facebook::jsi::Value") align 8 %agg.result, ptr noundef nonnull align 8 dereferenceable(172) %this, ptr noundef nonnull align 8 dereferenceable(8) %arr, i64 noundef %i) unnamed_addr #0 align 2 personality ptr @__gxx_personality_v0 {
invoke.cont:
  %i.addr = alloca i64, align 8
  %ref.tmp = alloca %"class.std::chrono::duration.37", align 8
  %ref.tmp2 = alloca i64, align 8
  %ref.tmp5 = alloca %"class.facebook::hermes::tracing::SynthTrace::TraceValue", align 8
  store i64 %i, ptr %i.addr, align 8
  %plain_.i = getelementptr inbounds i8, ptr %this, i64 16
  %0 = load ptr, ptr %plain_.i, align 8, !noalias !237
  %vtable.i = load ptr, ptr %0, align 8, !noalias !237
  %vfn.i = getelementptr inbounds i8, ptr %vtable.i, i64 464
  %1 = load ptr, ptr %vfn.i, align 8, !noalias !237
  tail call void %1(ptr sret(%"class.facebook::jsi::Value") align 8 %agg.result, ptr noundef nonnull align 8 dereferenceable(8) %0, ptr noundef nonnull align 8 dereferenceable(8) %arr, i64 noundef %i)
  %trace_ = getelementptr inbounds i8, ptr %this, i64 32
  %call.i = tail call i64 @_ZNSt6chrono3_V212steady_clock3nowEv() #27
  %startTime_.i = getelementptr inbounds i8, ptr %this, i64 160
  %retval.sroa.0.0.copyload.i1.i.i = load i64, ptr %startTime_.i, align 8
  %sub.i.i.i = sub nsw i64 %call.i, %retval.sroa.0.0.copyload.i1.i.i
  %div.i.i.i = sdiv i64 %sub.i.i.i, 1000000
  store i64 %div.i.i.i, ptr %ref.tmp, align 8
  %vtable = load ptr, ptr %this, align 8
  %vfn = getelementptr inbounds i8, ptr %vtable, i64 664
  %2 = load ptr, ptr %vfn, align 8
  %call4 = invoke noundef i64 %2(ptr noundef nonnull align 8 dereferenceable(172) %this, ptr noundef nonnull align 8 dereferenceable(8) %arr)
          to label %invoke.cont3 unwind label %lpad

invoke.cont3:                                     ; preds = %invoke.cont
  store i64 %call4, ptr %ref.tmp2, align 8
  %call7 = invoke { i32, i64 } @_ZN8facebook6hermes7tracing14TracingRuntime12toTraceValueERKNS_3jsi5ValueE(ptr noundef nonnull align 8 dereferenceable(172) %this, ptr noundef nonnull align 8 dereferenceable(16) %agg.result)
          to label %invoke.cont6 unwind label %lpad

invoke.cont6:                                     ; preds = %invoke.cont3
  %3 = extractvalue { i32, i64 } %call7, 0
  store i32 %3, ptr %ref.tmp5, align 8
  %4 = getelementptr inbounds i8, ptr %ref.tmp5, i64 8
  %5 = extractvalue { i32, i64 } %call7, 1
  store i64 %5, ptr %4, align 8
  invoke void @_ZN8facebook6hermes7tracing10SynthTrace12emplace_backINS2_15ArrayReadRecordEJNSt6chrono8durationIlSt5ratioILl1ELl1000EEEEmRmNS2_10TraceValueEEEEvDpOT0_(ptr noundef nonnull align 8 dereferenceable(48) %trace_, ptr noundef nonnull align 8 dereferenceable(8) %ref.tmp, ptr noundef nonnull align 8 dereferenceable(8) %ref.tmp2, ptr noundef nonnull align 8 dereferenceable(8) %i.addr, ptr noundef nonnull align 8 dereferenceable(16) %ref.tmp5)
          to label %nrvo.skipdtor unwind label %lpad

lpad:                                             ; preds = %invoke.cont6, %invoke.cont3, %invoke.cont
  %6 = landingpad { ptr, i32 }
          cleanup
  call void @_ZN8facebook3jsi5ValueD1Ev(ptr noundef nonnull align 8 dereferenceable(16) %agg.result) #27
  resume { ptr, i32 } %6

nrvo.skipdtor:                                    ; preds = %invoke.cont6
  ret void
}